; ModuleID = '43/1747.c'
source_filename = "43/1747.c"
target datalayout = "e-m:e-p270:32:32-p271:32:32-p272:64:64-i64:64-f80:128-n8:16:32:64-S128"
target triple = "x86_64-pc-linux-gnu"

@.str = private unnamed_addr constant [3 x i8] c"%d\00", align 1
@.str.1 = private unnamed_addr constant [7 x i8] c"%d %d\0A\00", align 1

; Function Attrs: noinline nounwind uwtable
define dso_local i32 @main() #0 {
  %1 = alloca i32, align 4
  %2 = alloca i32, align 4
  %3 = alloca i32, align 4
  %4 = alloca i32, align 4
  %5 = alloca i32, align 4
  %6 = alloca i32, align 4
  %7 = alloca i32, align 4
  store i32 0, i32* %1, align 4
  %8 = call i32 (i8*, ...) @__isoc99_scanf(i8* getelementptr inbounds ([3 x i8], [3 x i8]* @.str, i64 0, i64 0), i32* %5)
  %9 = load i32, i32* %5, align 4
  %10 = sdiv i32 %9, 2
  store i32 %10, i32* %6, align 4
  store i32 1, i32* %2, align 4
  br label %11

11:                                               ; preds = %61, %0
  %12 = load i32, i32* %2, align 4
  %13 = load i32, i32* %6, align 4
  %14 = icmp sle i32 %12, %13
  br i1 %14, label %15, label %64

15:                                               ; preds = %11
  %16 = load i32, i32* %5, align 4
  %17 = load i32, i32* %2, align 4
  %18 = sub nsw i32 %16, %17
  store i32 %18, i32* %7, align 4
  store i32 2, i32* %3, align 4
  br label %19

19:                                               ; preds = %30, %15
  %20 = load i32, i32* %3, align 4
  %21 = load i32, i32* %2, align 4
  %22 = icmp sle i32 %20, %21
  br i1 %22, label %23, label %33

23:                                               ; preds = %19
  %24 = load i32, i32* %2, align 4
  %25 = load i32, i32* %3, align 4
  %26 = srem i32 %24, %25
  %27 = icmp eq i32 %26, 0
  br i1 %27, label %28, label %29

28:                                               ; preds = %23
  br label %33

29:                                               ; preds = %23
  br label %30

30:                                               ; preds = %29
  %31 = load i32, i32* %3, align 4
  %32 = add nsw i32 %31, 1
  store i32 %32, i32* %3, align 4
  br label %19

33:                                               ; preds = %28, %19
  store i32 2, i32* %4, align 4
  br label %34

34:                                               ; preds = %45, %33
  %35 = load i32, i32* %4, align 4
  %36 = load i32, i32* %7, align 4
  %37 = icmp sle i32 %35, %36
  br i1 %37, label %38, label %48

38:                                               ; preds = %34
  %39 = load i32, i32* %7, align 4
  %40 = load i32, i32* %4, align 4
  %41 = srem i32 %39, %40
  %42 = icmp eq i32 %41, 0
  br i1 %42, label %43, label %44

43:                                               ; preds = %38
  br label %48

44:                                               ; preds = %38
  br label %45

45:                                               ; preds = %44
  %46 = load i32, i32* %4, align 4
  %47 = add nsw i32 %46, 1
  store i32 %47, i32* %4, align 4
  br label %34

48:                                               ; preds = %43, %34
  %49 = load i32, i32* %3, align 4
  %50 = load i32, i32* %2, align 4
  %51 = icmp eq i32 %49, %50
  br i1 %51, label %52, label %60

52:                                               ; preds = %48
  %53 = load i32, i32* %4, align 4
  %54 = load i32, i32* %7, align 4
  %55 = icmp eq i32 %53, %54
  br i1 %55, label %56, label %60

56:                                               ; preds = %52
  %57 = load i32, i32* %2, align 4
  %58 = load i32, i32* %7, align 4
  %59 = call i32 (i8*, ...) @printf(i8* getelementptr inbounds ([7 x i8], [7 x i8]* @.str.1, i64 0, i64 0), i32 %57, i32 %58)
  br label %60

60:                                               ; preds = %56, %52, %48
  br label %61

61:                                               ; preds = %60
  %62 = load i32, i32* %2, align 4
  %63 = add nsw i32 %62, 1
  store i32 %63, i32* %2, align 4
  br label %11

64:                                               ; preds = %11
  %65 = load i32, i32* %1, align 4
  ret i32 %65
}

declare dso_local i32 @__isoc99_scanf(i8*, ...) #1

declare dso_local i32 @printf(i8*, ...) #1


!llvm.module.flags = !{!0}
!llvm.ident = !{!1}

!0 = !{i32 1, !"wchar_size", i32 4}
!1 = !{!"clang version 10.0.0-4ubuntu1 "}
